; Function Attrs: mustprogress nofree norecurse nosync nounwind willreturn memory(read, inaccessiblemem: none) uwtable
define noundef zeroext i1 @_ZNK32pxrInternal_v0_24__pxrReserved__10UsdZipFile8IteratorneERKS1_(ptr nocapture noundef nonnull readonly align 8 dereferenceable(8) %0, ptr nocapture noundef nonnull readonly align 8 dereferenceable(8) %1) local_unnamed_addr #8 align 2 {
  %3 = load ptr, ptr %0, align 8
  %.not.i = icmp eq ptr %3, null
  %4 = load ptr, ptr %1, align 8
  %.not6.i = icmp eq ptr %4, null
  %brmerge.i = select i1 %.not.i, i1 true, i1 %.not6.i
  %.not6.mux.i = select i1 %.not.i, i1 %.not6.i, i1 false
  br i1 %brmerge.i, label %_ZNK32pxrInternal_v0_24__pxrReserved__10UsdZipFile8IteratoreqERKS1_.exit, label %5

5:                                                ; preds = %2
  %6 = load ptr, ptr %3, align 8
  %7 = load ptr, ptr %4, align 8
  %8 = icmp eq ptr %6, %7
  br i1 %8, label %9, label %_ZNK32pxrInternal_v0_24__pxrReserved__10UsdZipFile8IteratoreqERKS1_.exit

9:                                                ; preds = %5
  %10 = getelementptr inbounds nuw i8, ptr %3, i64 8
  %11 = load i64, ptr %10, align 8
  %12 = getelementptr inbounds nuw i8, ptr %4, i64 8
  %13 = load i64, ptr %12, align 8
  %14 = icmp eq i64 %11, %13
  br label %_ZNK32pxrInternal_v0_24__pxrReserved__10UsdZipFile8IteratoreqERKS1_.exit

_ZNK32pxrInternal_v0_24__pxrReserved__10UsdZipFile8IteratoreqERKS1_.exit: ; preds = %2, %5, %9
  %.0.i = phi i1 [ false, %5 ], [ %14, %9 ], [ %.not6.mux.i, %2 ]
  %15 = xor i1 %.0.i, true
  ret i1 %15
}